; ModuleID = 'source-C-CXX/41/1256.c'
source_filename = "source-C-CXX/41/1256.c"
target datalayout = "e-m:e-p270:32:32-p271:32:32-p272:64:64-i64:64-f80:128-n8:16:32:64-S128"
target triple = "x86_64-pc-linux-gnu"

@.str = private unnamed_addr constant [3 x i8] c"%d\00", align 1
@.str.1 = private unnamed_addr constant [4 x i8] c" %d\00", align 1

; Function Attrs: nounwind sspstrong uwtable
define dso_local i32 @main(i32 %0, i8** nocapture readnone %1) local_unnamed_addr #0 {
  %3 = alloca i32, align 4
  %4 = alloca i32, align 4
  %5 = bitcast i32* %3 to i8*
  call void @llvm.lifetime.start.p0i8(i64 4, i8* nonnull %5) #5
  %6 = bitcast i32* %4 to i8*
  call void @llvm.lifetime.start.p0i8(i64 4, i8* nonnull %6) #5
  %7 = call i32 (i8*, ...) @__isoc99_scanf(i8* getelementptr inbounds ([3 x i8], [3 x i8]* @.str, i64 0, i64 0), i32* nonnull %3)
  %8 = load i32, i32* %3, align 4, !tbaa !5
  %9 = sext i32 %8 to i64
  %10 = shl nsw i64 %9, 2
  %11 = call noalias align 16 i8* @malloc(i64 %10) #5
  %12 = bitcast i8* %11 to i32*
  %13 = icmp sgt i32 %8, 0
  br i1 %13, label %14, label %22

14:                                               ; preds = %2, %14
  %15 = phi i64 [ %18, %14 ], [ 0, %2 ]
  %16 = getelementptr inbounds i32, i32* %12, i64 %15
  %17 = call i32 (i8*, ...) @__isoc99_scanf(i8* getelementptr inbounds ([3 x i8], [3 x i8]* @.str, i64 0, i64 0), i32* %16)
  %18 = add nuw nsw i64 %15, 1
  %19 = load i32, i32* %3, align 4, !tbaa !5
  %20 = sext i32 %19 to i64
  %21 = icmp slt i64 %18, %20
  br i1 %21, label %14, label %22, !llvm.loop !9

22:                                               ; preds = %14, %2
  %23 = call i32 (i8*, ...) @__isoc99_scanf(i8* getelementptr inbounds ([3 x i8], [3 x i8]* @.str, i64 0, i64 0), i32* nonnull %4)
  %24 = load i32, i32* %3, align 4, !tbaa !5
  %25 = load i32, i32* %4, align 4
  %26 = icmp sgt i32 %24, 0
  br i1 %26, label %27, label %41

27:                                               ; preds = %22
  %28 = zext i32 %24 to i64
  br label %29

29:                                               ; preds = %27, %38
  %30 = phi i64 [ 0, %27 ], [ %39, %38 ]
  %31 = getelementptr inbounds i32, i32* %12, i64 %30
  %32 = load i32, i32* %31, align 4, !tbaa !5
  %33 = icmp eq i32 %32, %25
  br i1 %33, label %38, label %34

34:                                               ; preds = %29
  %35 = trunc i64 %30 to i32
  %36 = call i32 (i8*, ...) @printf(i8* nonnull dereferenceable(1) getelementptr inbounds ([3 x i8], [3 x i8]* @.str, i64 0, i64 0), i32 %32)
  %37 = load i32, i32* %3, align 4, !tbaa !5
  br label %41

38:                                               ; preds = %29
  %39 = add nuw nsw i64 %30, 1
  %40 = icmp eq i64 %39, %28
  br i1 %40, label %41, label %29, !llvm.loop !11

41:                                               ; preds = %38, %22, %34
  %42 = phi i32 [ %37, %34 ], [ %24, %22 ], [ %24, %38 ]
  %43 = phi i32 [ %35, %34 ], [ 0, %22 ], [ %24, %38 ]
  %44 = add i32 %43, 1
  %45 = icmp slt i32 %44, %42
  br i1 %45, label %46, label %63

46:                                               ; preds = %41
  %47 = zext i32 %44 to i64
  br label %48

48:                                               ; preds = %46, %58
  %49 = phi i32 [ %42, %46 ], [ %59, %58 ]
  %50 = phi i64 [ %47, %46 ], [ %60, %58 ]
  %51 = getelementptr inbounds i32, i32* %12, i64 %50
  %52 = load i32, i32* %51, align 4, !tbaa !5
  %53 = load i32, i32* %4, align 4, !tbaa !5
  %54 = icmp eq i32 %52, %53
  br i1 %54, label %58, label %55

55:                                               ; preds = %48
  %56 = call i32 (i8*, ...) @printf(i8* nonnull dereferenceable(1) getelementptr inbounds ([4 x i8], [4 x i8]* @.str.1, i64 0, i64 0), i32 %52)
  %57 = load i32, i32* %3, align 4, !tbaa !5
  br label %58

58:                                               ; preds = %48, %55
  %59 = phi i32 [ %49, %48 ], [ %57, %55 ]
  %60 = add nuw nsw i64 %50, 1
  %61 = trunc i64 %60 to i32
  %62 = icmp sgt i32 %59, %61
  br i1 %62, label %48, label %63, !llvm.loop !12

63:                                               ; preds = %58, %41
  call void @free(i8* %11) #5
  call void @llvm.lifetime.end.p0i8(i64 4, i8* nonnull %6) #5
  call void @llvm.lifetime.end.p0i8(i64 4, i8* nonnull %5) #5
  ret i32 0
}

; Function Attrs: argmemonly mustprogress nofree nosync nounwind willreturn
declare void @llvm.lifetime.start.p0i8(i64 immarg, i8* nocapture) #1

; Function Attrs: nofree nounwind
declare noundef i32 @__isoc99_scanf(i8* nocapture noundef readonly, ...) local_unnamed_addr #2

; Function Attrs: inaccessiblememonly mustprogress nofree nounwind willreturn
declare noalias noundef align 16 i8* @malloc(i64 noundef) local_unnamed_addr #3

; Function Attrs: nofree nounwind
declare noundef i32 @printf(i8* nocapture noundef readonly, ...) local_unnamed_addr #2

; Function Attrs: inaccessiblemem_or_argmemonly mustprogress nounwind willreturn
declare void @free(i8* nocapture noundef) local_unnamed_addr #4

; Function Attrs: argmemonly mustprogress nofree nosync nounwind willreturn
declare void @llvm.lifetime.end.p0i8(i64 immarg, i8* nocapture) #1


!llvm.module.flags = !{!0, !1, !2, !3}
!llvm.ident = !{!4}

!0 = !{i32 1, !"wchar_size", i32 4}
!1 = !{i32 7, !"PIC Level", i32 2}
!2 = !{i32 7, !"PIE Level", i32 2}
!3 = !{i32 7, !"uwtable", i32 1}
!4 = !{!"clang version 13.0.0"}
!5 = !{!6, !6, i64 0}
!6 = !{!"int", !7, i64 0}
!7 = !{!"omnipotent char", !8, i64 0}
!8 = !{!"Simple C/C++ TBAA"}
!9 = distinct !{!9, !10}
!10 = !{!"llvm.loop.mustprogress"}
!11 = distinct !{!11, !10}
!12 = distinct !{!12, !10}
